; Function Attrs: mustprogress nounwind uwtable
define hidden void @jfr_set_dump_path(ptr noundef %0, ptr nocapture noundef readnone %1, ptr noundef %2) local_unnamed_addr #0 {
  %4 = icmp eq ptr %2, null
  br i1 %4, label %5, label %6

5:                                                ; preds = %3
  tail call void @_ZN16JfrEmergencyDump13set_dump_pathEPKc(ptr noundef null) #9
  br label %14

6:                                                ; preds = %3
  %7 = load ptr, ptr %0, align 8
  %8 = getelementptr inbounds i8, ptr %7, i64 1352
  %9 = load ptr, ptr %8, align 8
  %10 = tail call noundef ptr %9(ptr noundef nonnull %0, ptr noundef nonnull %2, ptr noundef null) #9
  tail call void @_ZN16JfrEmergencyDump13set_dump_pathEPKc(ptr noundef %10) #9
  %11 = load ptr, ptr %0, align 8
  %12 = getelementptr inbounds i8, ptr %11, i64 1360
  %13 = load ptr, ptr %12, align 8
  tail call void %13(ptr noundef nonnull %0, ptr noundef nonnull %2, ptr noundef %10) #9
  br label %14

14:                                               ; preds = %6, %5
  ret void
}